target datalayout = "e-m:e-p270:32:32-p271:32:32-p272:64:64-i64:64-i128:128-f80:128-n8:16:32:64-S128"
target triple = "x86_64-pc-linux-gnu"

%class.memif_t = type { ptr, ptr }
%class.preload_aware_memif_t = type { %class.memif_t, ptr }

; Function Attrs: mustprogress uwtable
define internal void @_ZZN6htif_t12load_payloadERKNSt7__cxx1112basic_stringIcSt11char_traitsIcESaIcEEEPmmEN21preload_aware_memif_t5writeEmmPKv(ptr noundef nonnull align 8 dereferenceable(24) %0, i64 noundef %1, i64 noundef %2, ptr noundef %3) unnamed_addr #4 align 2 {
  %5 = alloca ptr, align 8
  %6 = alloca i64, align 8
  %7 = alloca i64, align 8
  %8 = alloca ptr, align 8
  store ptr %0, ptr %5, align 8, !tbaa !137
  store i64 %1, ptr %6, align 8, !tbaa !115
  store i64 %2, ptr %7, align 8, !tbaa !115
  store ptr %3, ptr %8, align 8, !tbaa !184
  %9 = load ptr, ptr %5, align 8
  %10 = getelementptr inbounds nuw %class.preload_aware_memif_t, ptr %9, i32 0, i32 1
  %11 = load ptr, ptr %10, align 8, !tbaa !139
  %12 = load i64, ptr %6, align 8, !tbaa !115
  %13 = load i64, ptr %7, align 8, !tbaa !115
  %14 = load ptr, ptr %11, align 8, !tbaa !8
  %15 = getelementptr inbounds ptr, ptr %14, i64 15
  %16 = load ptr, ptr %15, align 8
  %17 = call noundef zeroext i1 %16(ptr noundef nonnull align 8 dereferenceable(712) %11, i64 noundef %12, i64 noundef %13)
  br i1 %17, label %22, label %18

18:                                               ; preds = %4
  %19 = load i64, ptr %6, align 8, !tbaa !115
  %20 = load i64, ptr %7, align 8, !tbaa !115
  %21 = load ptr, ptr %8, align 8, !tbaa !184
  call void @_ZN7memif_t5writeEmmPKv(ptr noundef nonnull align 8 dereferenceable(16) %9, i64 noundef %19, i64 noundef %20, ptr noundef %21)
  br label %22

22:                                               ; preds = %18, %4
  ret void
}