; Function Attrs: mustprogress uwtable
define internal void @_ZZN6htif_t12load_payloadERKNSt7__cxx1112basic_stringIcSt11char_traitsIcESaIcEEEPmmEN21preload_aware_memif_t5writeEmmPKv(ptr noundef nonnull align 8 dereferenceable(24) %0, i64 noundef %1, i64 noundef %2, ptr noundef %3) unnamed_addr #3 align 2 {
  %5 = getelementptr inbounds nuw i8, ptr %0, i64 16
  %6 = load ptr, ptr %5, align 8, !tbaa !119
  %7 = load ptr, ptr %6, align 8, !tbaa !3
  %8 = getelementptr inbounds nuw i8, ptr %7, i64 120
  %9 = load ptr, ptr %8, align 8
  %10 = tail call noundef zeroext i1 %9(ptr noundef nonnull align 8 dereferenceable(712) %6, i64 noundef %1, i64 noundef %2)
  br i1 %10, label %12, label %11

11:                                               ; preds = %4
  tail call void @_ZN7memif_t5writeEmmPKv(ptr noundef nonnull align 8 dereferenceable(16) %0, i64 noundef %1, i64 noundef %2, ptr noundef %3)
  br label %12

12:                                               ; preds = %11, %4
  ret void
}